; Function Attrs: mustprogress nofree norecurse nosync nounwind willreturn memory(read, inaccessiblemem: none) uwtable
define internal noundef zeroext i1 @"_ZNSt17_Function_handlerIFbRKN4llvm13LegalityQueryEEZNS0_20AArch64LegalizerInfoC1ERKNS0_16AArch64SubtargetEE3$_5E9_M_invokeERKSt9_Any_dataS3_"(ptr nocapture noundef nonnull readonly align 8 dereferenceable(16) %0, ptr nocapture noundef nonnull readonly align 8 dereferenceable(40) %1) #11 align 2 {
  %.val = load ptr, ptr %0, align 8
  %3 = getelementptr inbounds i8, ptr %1, i64 8
  %.val2 = load ptr, ptr %3, align 8
  %.val2.val = load i64, ptr %.val2, align 8
  %4 = load i64, ptr %.val, align 8
  %spec.select.i.i.i.i = icmp eq i64 %.val2.val, %4
  %5 = getelementptr inbounds nuw i8, ptr %.val, i64 8
  %6 = load i64, ptr %5, align 8
  %spec.select.i4.i.i.i = icmp eq i64 %.val2.val, %6
  %or.cond.i.i.i = select i1 %spec.select.i.i.i.i, i1 true, i1 %spec.select.i4.i.i.i
  br i1 %or.cond.i.i.i, label %7, label %"_ZSt10__invoke_rIbRZN4llvm20AArch64LegalizerInfoC1ERKNS0_16AArch64SubtargetEE3$_5JRKNS0_13LegalityQueryEEENSt9enable_ifIX16is_invocable_r_vIT_T0_DpT1_EESB_E4typeEOSC_DpOSD_.exit"

7:                                                ; preds = %2
  %8 = getelementptr inbounds nuw i8, ptr %.val, i64 16
  %9 = load i8, ptr %8, align 8
  %10 = trunc i8 %9 to i1
  br label %"_ZSt10__invoke_rIbRZN4llvm20AArch64LegalizerInfoC1ERKNS0_16AArch64SubtargetEE3$_5JRKNS0_13LegalityQueryEEENSt9enable_ifIX16is_invocable_r_vIT_T0_DpT1_EESB_E4typeEOSC_DpOSD_.exit"

"_ZSt10__invoke_rIbRZN4llvm20AArch64LegalizerInfoC1ERKNS0_16AArch64SubtargetEE3$_5JRKNS0_13LegalityQueryEEENSt9enable_ifIX16is_invocable_r_vIT_T0_DpT1_EESB_E4typeEOSC_DpOSD_.exit": ; preds = %2, %7
  %11 = phi i1 [ %10, %7 ], [ false, %2 ]
  ret i1 %11
}